; Function Attrs: mustprogress nounwind uwtable
define hidden void @_ZN4llvm16DAGTypeLegalizer21ExpandFloatRes_FEXP10EPNS_6SDNodeERNS_7SDValueES4_(ptr noundef nonnull align 8 dereferenceable(2512) %0, ptr noundef %1, ptr noundef nonnull align 8 dereferenceable(12) %2, ptr noundef nonnull align 8 dereferenceable(12) %3) local_unnamed_addr #0 align 2 {
_ZL12GetFPLibCallN4llvm3EVTENS_5RTLIB7LibcallES2_S2_S2_S2_.exit:
  %4 = getelementptr inbounds nuw i8, ptr %1, i64 48
  %5 = load ptr, ptr %4, align 8
  %.sroa.0.0.copyload.i = load i16, ptr %5, align 8
  %switch.tableidx = add i16 %.sroa.0.0.copyload.i, -12
  %6 = icmp ult i16 %switch.tableidx, 5
  %switch.idx.cast = zext i16 %switch.tableidx to i32
  %switch.offset = add nuw nsw i32 %switch.idx.cast, 150
  %7 = select i1 %6, i32 %switch.offset, i32 700
  tail call void @_ZN4llvm16DAGTypeLegalizer20ExpandFloatRes_UnaryEPNS_6SDNodeENS_5RTLIB7LibcallERNS_7SDValueES6_(ptr noundef nonnull align 8 dereferenceable(2512) %0, ptr noundef nonnull %1, i32 noundef %7, ptr noundef nonnull align 8 dereferenceable(12) %2, ptr noundef nonnull align 8 dereferenceable(12) %3)
  ret void
}